target datalayout = "e-m:e-p270:32:32-p271:32:32-p272:64:64-i64:64-i128:128-f80:128-n8:16:32:64-S128"
target triple = "x86_64-pc-linux-gnu"

@hf_x11_rectangle_height = internal global i32 0, align 4
@hf_x11_rectangle = internal global i32 0, align 4
@hf_x11_rectangle_width = internal global i32 0, align 4
@hf_x11_rectangle_x = internal global i32 0, align 4
@hf_x11_rectangle_y = internal global i32 0, align 4
@ett_x11_list_of_rectangle = internal global i32 0, align 4
@ett_x11_rectangle = internal global i32 0, align 4
@.str.14928 = private unnamed_addr constant [23 x i8] c"rectangle: %dx%d+%d+%d\00", align 1

; Function Attrs: null_pointer_is_valid sspstrong uwtable
define internal void @listOfRectangle(ptr noundef %0, ptr noundef %1, ptr noundef %2, i32 noundef %3, i32 noundef %4, i32 noundef %5) #1 {
  %7 = alloca ptr, align 8
  %8 = alloca ptr, align 8
  %9 = alloca ptr, align 8
  %10 = alloca i32, align 4
  %11 = alloca i32, align 4
  %12 = alloca i32, align 4
  %13 = alloca ptr, align 8
  %14 = alloca ptr, align 8
  %15 = alloca i16, align 2
  %16 = alloca i16, align 2
  %17 = alloca i32, align 4
  %18 = alloca i32, align 4
  %19 = alloca ptr, align 8
  %20 = alloca ptr, align 8
  store ptr %0, ptr %7, align 8
  store ptr %1, ptr %8, align 8
  store ptr %2, ptr %9, align 8
  store i32 %3, ptr %10, align 4
  store i32 %4, ptr %11, align 4
  store i32 %5, ptr %12, align 4
  call void @llvm.lifetime.start.p0(i64 8, ptr %13) #11
  %21 = load ptr, ptr %9, align 8
  %22 = load i32, ptr %10, align 4
  %23 = load ptr, ptr %7, align 8
  %24 = load ptr, ptr %8, align 8
  %25 = load i32, ptr %24, align 4
  %26 = load i32, ptr %11, align 4
  %27 = mul i32 %26, 8
  %28 = load i32, ptr %12, align 4
  %29 = call ptr @proto_tree_add_item(ptr noundef %21, i32 noundef %22, ptr noundef %23, i32 noundef %25, i32 noundef %27, i32 noundef %28)
  store ptr %29, ptr %13, align 8
  call void @llvm.lifetime.start.p0(i64 8, ptr %14) #11
  %30 = load ptr, ptr %13, align 8
  %31 = load i32, ptr @ett_x11_list_of_rectangle, align 4
  %32 = call ptr @proto_item_add_subtree(ptr noundef %30, i32 noundef %31)
  store ptr %32, ptr %14, align 8
  br label %33

33:                                               ; preds = %37, %6
  %34 = load i32, ptr %11, align 4
  %35 = add i32 %34, -1
  store i32 %35, ptr %11, align 4
  %36 = icmp ne i32 %34, 0
  br i1 %36, label %37, label %120

37:                                               ; preds = %33
  call void @llvm.lifetime.start.p0(i64 2, ptr %15) #11
  call void @llvm.lifetime.start.p0(i64 2, ptr %16) #11
  call void @llvm.lifetime.start.p0(i64 4, ptr %17) #11
  call void @llvm.lifetime.start.p0(i64 4, ptr %18) #11
  call void @llvm.lifetime.start.p0(i64 8, ptr %19) #11
  call void @llvm.lifetime.start.p0(i64 8, ptr %20) #11
  %38 = load ptr, ptr %7, align 8
  %39 = load ptr, ptr %8, align 8
  %40 = load i32, ptr %39, align 4
  %41 = load i32, ptr %12, align 4
  %42 = call zeroext i16 @tvb_get_uint16(ptr noundef %38, i32 noundef %40, i32 noundef %41)
  store i16 %42, ptr %15, align 2
  %43 = load ptr, ptr %7, align 8
  %44 = load ptr, ptr %8, align 8
  %45 = load i32, ptr %44, align 4
  %46 = add i32 %45, 2
  %47 = load i32, ptr %12, align 4
  %48 = call zeroext i16 @tvb_get_uint16(ptr noundef %43, i32 noundef %46, i32 noundef %47)
  store i16 %48, ptr %16, align 2
  %49 = load ptr, ptr %7, align 8
  %50 = load ptr, ptr %8, align 8
  %51 = load i32, ptr %50, align 4
  %52 = add i32 %51, 4
  %53 = load i32, ptr %12, align 4
  %54 = call zeroext i16 @tvb_get_uint16(ptr noundef %49, i32 noundef %52, i32 noundef %53)
  %55 = zext i16 %54 to i32
  store i32 %55, ptr %17, align 4
  %56 = load ptr, ptr %7, align 8
  %57 = load ptr, ptr %8, align 8
  %58 = load i32, ptr %57, align 4
  %59 = add i32 %58, 6
  %60 = load i32, ptr %12, align 4
  %61 = call zeroext i16 @tvb_get_uint16(ptr noundef %56, i32 noundef %59, i32 noundef %60)
  %62 = zext i16 %61 to i32
  store i32 %62, ptr %18, align 4
  %63 = load ptr, ptr %14, align 8
  %64 = load i32, ptr @hf_x11_rectangle, align 4
  %65 = load ptr, ptr %7, align 8
  %66 = load ptr, ptr %8, align 8
  %67 = load i32, ptr %66, align 4
  %68 = load i32, ptr %17, align 4
  %69 = load i32, ptr %18, align 4
  %70 = load i16, ptr %15, align 2
  %71 = sext i16 %70 to i32
  %72 = load i16, ptr %16, align 2
  %73 = sext i16 %72 to i32
  %74 = call ptr (ptr, i32, ptr, i32, i32, ptr, ...) @proto_tree_add_none_format(ptr noundef %63, i32 noundef %64, ptr noundef %65, i32 noundef %67, i32 noundef 8, ptr noundef @.str.14928, i32 noundef %68, i32 noundef %69, i32 noundef %71, i32 noundef %73)
  store ptr %74, ptr %19, align 8
  %75 = load ptr, ptr %19, align 8
  %76 = load i32, ptr @ett_x11_rectangle, align 4
  %77 = call ptr @proto_item_add_subtree(ptr noundef %75, i32 noundef %76)
  store ptr %77, ptr %20, align 8
  %78 = load ptr, ptr %20, align 8
  %79 = load i32, ptr @hf_x11_rectangle_x, align 4
  %80 = load ptr, ptr %7, align 8
  %81 = load ptr, ptr %8, align 8
  %82 = load i32, ptr %81, align 4
  %83 = load i16, ptr %15, align 2
  %84 = sext i16 %83 to i32
  %85 = call ptr @proto_tree_add_int(ptr noundef %78, i32 noundef %79, ptr noundef %80, i32 noundef %82, i32 noundef 2, i32 noundef %84)
  %86 = load ptr, ptr %8, align 8
  %87 = load i32, ptr %86, align 4
  %88 = add i32 %87, 2
  store i32 %88, ptr %86, align 4
  %89 = load ptr, ptr %20, align 8
  %90 = load i32, ptr @hf_x11_rectangle_y, align 4
  %91 = load ptr, ptr %7, align 8
  %92 = load ptr, ptr %8, align 8
  %93 = load i32, ptr %92, align 4
  %94 = load i16, ptr %16, align 2
  %95 = sext i16 %94 to i32
  %96 = call ptr @proto_tree_add_int(ptr noundef %89, i32 noundef %90, ptr noundef %91, i32 noundef %93, i32 noundef 2, i32 noundef %95)
  %97 = load ptr, ptr %8, align 8
  %98 = load i32, ptr %97, align 4
  %99 = add i32 %98, 2
  store i32 %99, ptr %97, align 4
  %100 = load ptr, ptr %20, align 8
  %101 = load i32, ptr @hf_x11_rectangle_width, align 4
  %102 = load ptr, ptr %7, align 8
  %103 = load ptr, ptr %8, align 8
  %104 = load i32, ptr %103, align 4
  %105 = load i32, ptr %17, align 4
  %106 = call ptr @proto_tree_add_uint(ptr noundef %100, i32 noundef %101, ptr noundef %102, i32 noundef %104, i32 noundef 2, i32 noundef %105)
  %107 = load ptr, ptr %8, align 8
  %108 = load i32, ptr %107, align 4
  %109 = add i32 %108, 2
  store i32 %109, ptr %107, align 4
  %110 = load ptr, ptr %20, align 8
  %111 = load i32, ptr @hf_x11_rectangle_height, align 4
  %112 = load ptr, ptr %7, align 8
  %113 = load ptr, ptr %8, align 8
  %114 = load i32, ptr %113, align 4
  %115 = load i32, ptr %18, align 4
  %116 = call ptr @proto_tree_add_uint(ptr noundef %110, i32 noundef %111, ptr noundef %112, i32 noundef %114, i32 noundef 2, i32 noundef %115)
  %117 = load ptr, ptr %8, align 8
  %118 = load i32, ptr %117, align 4
  %119 = add i32 %118, 2
  store i32 %119, ptr %117, align 4
  call void @llvm.lifetime.end.p0(i64 8, ptr %20) #11
  call void @llvm.lifetime.end.p0(i64 8, ptr %19) #11
  call void @llvm.lifetime.end.p0(i64 4, ptr %18) #11
  call void @llvm.lifetime.end.p0(i64 4, ptr %17) #11
  call void @llvm.lifetime.end.p0(i64 2, ptr %16) #11
  call void @llvm.lifetime.end.p0(i64 2, ptr %15) #11
  br label %33, !llvm.loop !48

120:                                              ; preds = %33
  call void @llvm.lifetime.end.p0(i64 8, ptr %14) #11
  call void @llvm.lifetime.end.p0(i64 8, ptr %13) #11
  ret void
}