; Function Attrs: null_pointer_is_valid sspstrong uwtable
define internal fastcc void @listOfRectangle(ptr noundef %0, ptr noundef captures(none) %1, ptr noundef %2, i32 noundef %3, i32 noundef range(i32 -268435456, 268435456) %4, i32 noundef %5) unnamed_addr #1 {
  %7 = load i32, ptr %1, align 4
  %8 = shl nsw i32 %4, 3
  %9 = tail call ptr @proto_tree_add_item(ptr noundef %2, i32 noundef %3, ptr noundef %0, i32 noundef %7, i32 noundef %8, i32 noundef %5)
  %10 = load i32, ptr @ett_x11_list_of_rectangle, align 4
  %11 = tail call ptr @proto_item_add_subtree(ptr noundef %9, i32 noundef %10)
  %.not47 = icmp eq i32 %4, 0
  br i1 %.not47, label %._crit_edge, label %.lr.ph.preheader

.lr.ph.preheader:                                 ; preds = %6
  %.pre = load i32, ptr %1, align 4
  br label %.lr.ph

.lr.ph:                                           ; preds = %.lr.ph.preheader, %.lr.ph
  %12 = phi i32 [ %49, %.lr.ph ], [ %.pre, %.lr.ph.preheader ]
  %.048 = phi i32 [ %13, %.lr.ph ], [ %4, %.lr.ph.preheader ]
  %13 = add i32 %.048, -1
  %14 = tail call zeroext i16 @tvb_get_uint16(ptr noundef %0, i32 noundef %12, i32 noundef %5)
  %15 = load i32, ptr %1, align 4
  %16 = add i32 %15, 2
  %17 = tail call zeroext i16 @tvb_get_uint16(ptr noundef %0, i32 noundef %16, i32 noundef %5)
  %18 = load i32, ptr %1, align 4
  %19 = add i32 %18, 4
  %20 = tail call zeroext i16 @tvb_get_uint16(ptr noundef %0, i32 noundef %19, i32 noundef %5)
  %21 = zext i16 %20 to i32
  %22 = load i32, ptr %1, align 4
  %23 = add i32 %22, 6
  %24 = tail call zeroext i16 @tvb_get_uint16(ptr noundef %0, i32 noundef %23, i32 noundef %5)
  %25 = zext i16 %24 to i32
  %26 = load i32, ptr @hf_x11_rectangle, align 4
  %27 = load i32, ptr %1, align 4
  %28 = sext i16 %14 to i32
  %29 = sext i16 %17 to i32
  %30 = tail call ptr (ptr, i32, ptr, i32, i32, ptr, ...) @proto_tree_add_none_format(ptr noundef %11, i32 noundef %26, ptr noundef %0, i32 noundef %27, i32 noundef 8, ptr noundef nonnull @.str.14928, i32 noundef %21, i32 noundef %25, i32 noundef %28, i32 noundef %29)
  %31 = load i32, ptr @ett_x11_rectangle, align 4
  %32 = tail call ptr @proto_item_add_subtree(ptr noundef %30, i32 noundef %31)
  %33 = load i32, ptr @hf_x11_rectangle_x, align 4
  %34 = load i32, ptr %1, align 4
  %35 = tail call ptr @proto_tree_add_int(ptr noundef %32, i32 noundef %33, ptr noundef %0, i32 noundef %34, i32 noundef 2, i32 noundef %28)
  %36 = load i32, ptr %1, align 4
  %37 = add i32 %36, 2
  store i32 %37, ptr %1, align 4
  %38 = load i32, ptr @hf_x11_rectangle_y, align 4
  %39 = tail call ptr @proto_tree_add_int(ptr noundef %32, i32 noundef %38, ptr noundef %0, i32 noundef %37, i32 noundef 2, i32 noundef %29)
  %40 = load i32, ptr %1, align 4
  %41 = add i32 %40, 2
  store i32 %41, ptr %1, align 4
  %42 = load i32, ptr @hf_x11_rectangle_width, align 4
  %43 = tail call ptr @proto_tree_add_uint(ptr noundef %32, i32 noundef %42, ptr noundef %0, i32 noundef %41, i32 noundef 2, i32 noundef %21)
  %44 = load i32, ptr %1, align 4
  %45 = add i32 %44, 2
  store i32 %45, ptr %1, align 4
  %46 = load i32, ptr @hf_x11_rectangle_height, align 4
  %47 = tail call ptr @proto_tree_add_uint(ptr noundef %32, i32 noundef %46, ptr noundef %0, i32 noundef %45, i32 noundef 2, i32 noundef %25)
  %48 = load i32, ptr %1, align 4
  %49 = add i32 %48, 2
  store i32 %49, ptr %1, align 4
  %.not = icmp eq i32 %13, 0
  br i1 %.not, label %._crit_edge, label %.lr.ph, !llvm.loop !49

._crit_edge:                                      ; preds = %.lr.ph, %6
  ret void
}